target datalayout = "e-m:e-p270:32:32-p271:32:32-p272:64:64-i64:64-i128:128-f80:128-n8:16:32:64-S128"
target triple = "x86_64-pc-linux-gnu"

%struct._generic_N_Vector = type { ptr, ptr, ptr }
%struct._N_VectorContent_Serial = type { i64, i32, ptr }

@.str.28 = private unnamed_addr constant [58 x i8] c"--------------------------------------------------------\0A\00", align 1
@.str.56 = private unnamed_addr constant [20 x i8] c"tB0:        %12.4e\0A\00", align 1
@.str.57 = private unnamed_addr constant [34 x i8] c"dG/dp:      %12.4e %12.4e %12.4e\0A\00", align 1
@.str.58 = private unnamed_addr constant [34 x i8] c"lambda(t0): %12.4e %12.4e %12.4e\0A\00", align 1

; Function Attrs: nounwind uwtable
define internal void @PrintOutput(double noundef %0, ptr noundef %1, ptr noundef %2, ptr noundef %3) #0 {
  %5 = alloca double, align 8
  %6 = alloca ptr, align 8
  %7 = alloca ptr, align 8
  %8 = alloca ptr, align 8
  store double %0, ptr %5, align 8, !tbaa !18
  store ptr %1, ptr %6, align 8, !tbaa !16
  store ptr %2, ptr %7, align 8, !tbaa !16
  store ptr %3, ptr %8, align 8, !tbaa !16
  %9 = call i32 (ptr, ...) @printf(ptr noundef @.str.28)
  %10 = load double, ptr %5, align 8, !tbaa !18
  %11 = call i32 (ptr, ...) @printf(ptr noundef @.str.56, double noundef %10)
  %12 = load ptr, ptr %8, align 8, !tbaa !16
  %13 = getelementptr inbounds nuw %struct._generic_N_Vector, ptr %12, i32 0, i32 0
  %14 = load ptr, ptr %13, align 8, !tbaa !22
  %15 = getelementptr inbounds nuw %struct._N_VectorContent_Serial, ptr %14, i32 0, i32 2
  %16 = load ptr, ptr %15, align 8, !tbaa !25
  %17 = getelementptr inbounds double, ptr %16, i64 0
  %18 = load double, ptr %17, align 8, !tbaa !18
  %19 = fneg double %18
  %20 = load ptr, ptr %8, align 8, !tbaa !16
  %21 = getelementptr inbounds nuw %struct._generic_N_Vector, ptr %20, i32 0, i32 0
  %22 = load ptr, ptr %21, align 8, !tbaa !22
  %23 = getelementptr inbounds nuw %struct._N_VectorContent_Serial, ptr %22, i32 0, i32 2
  %24 = load ptr, ptr %23, align 8, !tbaa !25
  %25 = getelementptr inbounds double, ptr %24, i64 1
  %26 = load double, ptr %25, align 8, !tbaa !18
  %27 = fneg double %26
  %28 = load ptr, ptr %8, align 8, !tbaa !16
  %29 = getelementptr inbounds nuw %struct._generic_N_Vector, ptr %28, i32 0, i32 0
  %30 = load ptr, ptr %29, align 8, !tbaa !22
  %31 = getelementptr inbounds nuw %struct._N_VectorContent_Serial, ptr %30, i32 0, i32 2
  %32 = load ptr, ptr %31, align 8, !tbaa !25
  %33 = getelementptr inbounds double, ptr %32, i64 2
  %34 = load double, ptr %33, align 8, !tbaa !18
  %35 = fneg double %34
  %36 = call i32 (ptr, ...) @printf(ptr noundef @.str.57, double noundef %19, double noundef %27, double noundef %35)
  %37 = load ptr, ptr %6, align 8, !tbaa !16
  %38 = getelementptr inbounds nuw %struct._generic_N_Vector, ptr %37, i32 0, i32 0
  %39 = load ptr, ptr %38, align 8, !tbaa !22
  %40 = getelementptr inbounds nuw %struct._N_VectorContent_Serial, ptr %39, i32 0, i32 2
  %41 = load ptr, ptr %40, align 8, !tbaa !25
  %42 = getelementptr inbounds double, ptr %41, i64 0
  %43 = load double, ptr %42, align 8, !tbaa !18
  %44 = load ptr, ptr %6, align 8, !tbaa !16
  %45 = getelementptr inbounds nuw %struct._generic_N_Vector, ptr %44, i32 0, i32 0
  %46 = load ptr, ptr %45, align 8, !tbaa !22
  %47 = getelementptr inbounds nuw %struct._N_VectorContent_Serial, ptr %46, i32 0, i32 2
  %48 = load ptr, ptr %47, align 8, !tbaa !25
  %49 = getelementptr inbounds double, ptr %48, i64 1
  %50 = load double, ptr %49, align 8, !tbaa !18
  %51 = load ptr, ptr %6, align 8, !tbaa !16
  %52 = getelementptr inbounds nuw %struct._generic_N_Vector, ptr %51, i32 0, i32 0
  %53 = load ptr, ptr %52, align 8, !tbaa !22
  %54 = getelementptr inbounds nuw %struct._N_VectorContent_Serial, ptr %53, i32 0, i32 2
  %55 = load ptr, ptr %54, align 8, !tbaa !25
  %56 = getelementptr inbounds double, ptr %55, i64 2
  %57 = load double, ptr %56, align 8, !tbaa !18
  %58 = call i32 (ptr, ...) @printf(ptr noundef @.str.58, double noundef %43, double noundef %50, double noundef %57)
  %59 = call i32 (ptr, ...) @printf(ptr noundef @.str.28)
  ret void
}