; Function Attrs: nofree nounwind uwtable
define internal fastcc void @PrintOutput(double noundef %0, ptr noundef readonly captures(none) %1, ptr noundef readonly captures(none) %2) unnamed_addr #7 {
  %puts = tail call i32 @puts(ptr nonnull dereferenceable(1) @str.19)
  %4 = tail call i32 (ptr, ...) @printf(ptr noundef nonnull dereferenceable(1) @.str.56, double noundef %0)
  %5 = load ptr, ptr %2, align 8, !tbaa !13
  %6 = getelementptr inbounds nuw i8, ptr %5, i64 16
  %7 = load ptr, ptr %6, align 8, !tbaa !16
  %8 = load double, ptr %7, align 8, !tbaa !9
  %9 = fneg double %8
  %10 = getelementptr inbounds nuw i8, ptr %7, i64 8
  %11 = load double, ptr %10, align 8, !tbaa !9
  %12 = fneg double %11
  %13 = getelementptr inbounds nuw i8, ptr %7, i64 16
  %14 = load double, ptr %13, align 8, !tbaa !9
  %15 = fneg double %14
  %16 = tail call i32 (ptr, ...) @printf(ptr noundef nonnull dereferenceable(1) @.str.57, double noundef %9, double noundef %12, double noundef %15)
  %17 = load ptr, ptr %1, align 8, !tbaa !13
  %18 = getelementptr inbounds nuw i8, ptr %17, i64 16
  %19 = load ptr, ptr %18, align 8, !tbaa !16
  %20 = load double, ptr %19, align 8, !tbaa !9
  %21 = getelementptr inbounds nuw i8, ptr %19, i64 8
  %22 = load double, ptr %21, align 8, !tbaa !9
  %23 = getelementptr inbounds nuw i8, ptr %19, i64 16
  %24 = load double, ptr %23, align 8, !tbaa !9
  %25 = tail call i32 (ptr, ...) @printf(ptr noundef nonnull dereferenceable(1) @.str.58, double noundef %20, double noundef %22, double noundef %24)
  %puts7 = tail call i32 @puts(ptr nonnull dereferenceable(1) @str.19)
  ret void
}